; ModuleID = '24/2660.c'
source_filename = "24/2660.c"
target datalayout = "e-m:e-p270:32:32-p271:32:32-p272:64:64-i64:64-f80:128-n8:16:32:64-S128"
target triple = "x86_64-pc-linux-gnu"

@.str = private unnamed_addr constant [6 x i8] c"%d%*c\00", align 1
@.str.1 = private unnamed_addr constant [6 x i8] c"%s\0A%s\00", align 1

; Function Attrs: noinline nounwind uwtable
define dso_local i32 @main() #0 {
  %1 = alloca i32, align 4
  %2 = alloca i32, align 4
  %3 = alloca i32, align 4
  %4 = alloca i32, align 4
  %5 = alloca i32, align 4
  %6 = alloca i8**, align 8
  %7 = alloca i8**, align 8
  %8 = alloca [256 x i8], align 16
  %9 = alloca i8*, align 8
  %10 = alloca i8*, align 8
  store i32 0, i32* %1, align 4
  store i32 0, i32* %5, align 4
  %11 = call i32 (i8*, ...) @__isoc99_scanf(i8* getelementptr inbounds ([6 x i8], [6 x i8]* @.str, i64 0, i64 0), i32* %2)
  store i8** null, i8*** %6, align 8
  store i8** null, i8*** %7, align 8
  store i8* null, i8** %9, align 8
  %12 = load i32, i32* %2, align 4
  %13 = sext i32 %12 to i64
  %14 = mul i64 8, %13
  %15 = call noalias i8* @malloc(i64 %14) #4
  %16 = bitcast i8* %15 to i8**
  store i8** %16, i8*** %6, align 8
  %17 = load i32, i32* %2, align 4
  %18 = sext i32 %17 to i64
  %19 = mul i64 8, %18
  %20 = call noalias i8* @malloc(i64 %19) #4
  %21 = bitcast i8* %20 to i8**
  store i8** %21, i8*** %7, align 8
  store i32 0, i32* %5, align 4
  br label %22

22:                                               ; preds = %80, %0
  %23 = load i32, i32* %5, align 4
  %24 = load i32, i32* %2, align 4
  %25 = icmp slt i32 %23, %24
  br i1 %25, label %26, label %83

26:                                               ; preds = %22
  %27 = getelementptr inbounds [256 x i8], [256 x i8]* %8, i64 0, i64 0
  store i8* %27, i8** %9, align 8
  br label %28

28:                                               ; preds = %42, %26
  %29 = call i32 @getchar()
  %30 = trunc i32 %29 to i8
  %31 = load i8*, i8** %9, align 8
  %32 = getelementptr inbounds i8, i8* %31, i32 1
  store i8* %32, i8** %9, align 8
  store i8 %30, i8* %31, align 1
  %33 = sext i8 %30 to i32
  %34 = icmp ne i32 %33, 32
  br i1 %34, label %35, label %43

35:                                               ; preds = %28
  %36 = load i8*, i8** %9, align 8
  %37 = getelementptr inbounds i8, i8* %36, i64 -1
  %38 = load i8, i8* %37, align 1
  %39 = sext i8 %38 to i32
  %40 = icmp eq i32 %39, 10
  br i1 %40, label %41, label %42

41:                                               ; preds = %35
  br label %43

42:                                               ; preds = %35
  br label %28

43:                                               ; preds = %41, %28
  %44 = load i8*, i8** %9, align 8
  %45 = getelementptr inbounds i8, i8* %44, i64 -1
  store i8 0, i8* %45, align 1
  %46 = load i8*, i8** %9, align 8
  %47 = getelementptr inbounds [256 x i8], [256 x i8]* %8, i64 0, i64 0
  %48 = ptrtoint i8* %46 to i64
  %49 = ptrtoint i8* %47 to i64
  %50 = sub i64 %48, %49
  %51 = call noalias i8* @malloc(i64 %50) #4
  %52 = load i8**, i8*** %6, align 8
  %53 = load i32, i32* %5, align 4
  %54 = sext i32 %53 to i64
  %55 = getelementptr inbounds i8*, i8** %52, i64 %54
  store i8* %51, i8** %55, align 8
  %56 = load i8*, i8** %9, align 8
  %57 = getelementptr inbounds [256 x i8], [256 x i8]* %8, i64 0, i64 0
  %58 = ptrtoint i8* %56 to i64
  %59 = ptrtoint i8* %57 to i64
  %60 = sub i64 %58, %59
  %61 = call noalias i8* @malloc(i64 %60) #4
  %62 = load i8**, i8*** %7, align 8
  %63 = load i32, i32* %5, align 4
  %64 = sext i32 %63 to i64
  %65 = getelementptr inbounds i8*, i8** %62, i64 %64
  store i8* %61, i8** %65, align 8
  %66 = load i8**, i8*** %6, align 8
  %67 = load i32, i32* %5, align 4
  %68 = sext i32 %67 to i64
  %69 = getelementptr inbounds i8*, i8** %66, i64 %68
  %70 = load i8*, i8** %69, align 8
  %71 = getelementptr inbounds [256 x i8], [256 x i8]* %8, i64 0, i64 0
  %72 = call i8* @strcpy(i8* %70, i8* %71) #4
  %73 = load i8**, i8*** %7, align 8
  %74 = load i32, i32* %5, align 4
  %75 = sext i32 %74 to i64
  %76 = getelementptr inbounds i8*, i8** %73, i64 %75
  %77 = load i8*, i8** %76, align 8
  %78 = getelementptr inbounds [256 x i8], [256 x i8]* %8, i64 0, i64 0
  %79 = call i8* @strcpy(i8* %77, i8* %78) #4
  br label %80

80:                                               ; preds = %43
  %81 = load i32, i32* %5, align 4
  %82 = add nsw i32 %81, 1
  store i32 %82, i32* %5, align 4
  br label %22

83:                                               ; preds = %22
  store i8* null, i8** %10, align 8
  store i32 0, i32* %3, align 4
  br label %84

84:                                               ; preds = %136, %83
  %85 = load i32, i32* %3, align 4
  %86 = load i32, i32* %2, align 4
  %87 = icmp slt i32 %85, %86
  br i1 %87, label %88, label %139

88:                                               ; preds = %84
  store i32 0, i32* %4, align 4
  br label %89

89:                                               ; preds = %132, %88
  %90 = load i32, i32* %4, align 4
  %91 = load i32, i32* %2, align 4
  %92 = sub nsw i32 %91, 1
  %93 = icmp slt i32 %90, %92
  br i1 %93, label %94, label %135

94:                                               ; preds = %89
  %95 = load i8**, i8*** %6, align 8
  %96 = load i32, i32* %4, align 4
  %97 = sext i32 %96 to i64
  %98 = getelementptr inbounds i8*, i8** %95, i64 %97
  %99 = load i8*, i8** %98, align 8
  %100 = call i64 @strlen(i8* %99) #5
  %101 = load i8**, i8*** %6, align 8
  %102 = load i32, i32* %4, align 4
  %103 = add nsw i32 %102, 1
  %104 = sext i32 %103 to i64
  %105 = getelementptr inbounds i8*, i8** %101, i64 %104
  %106 = load i8*, i8** %105, align 8
  %107 = call i64 @strlen(i8* %106) #5
  %108 = icmp ult i64 %100, %107
  br i1 %108, label %109, label %131

109:                                              ; preds = %94
  %110 = load i8**, i8*** %6, align 8
  %111 = load i32, i32* %4, align 4
  %112 = sext i32 %111 to i64
  %113 = getelementptr inbounds i8*, i8** %110, i64 %112
  %114 = load i8*, i8** %113, align 8
  store i8* %114, i8** %10, align 8
  %115 = load i8**, i8*** %6, align 8
  %116 = load i32, i32* %4, align 4
  %117 = add nsw i32 %116, 1
  %118 = sext i32 %117 to i64
  %119 = getelementptr inbounds i8*, i8** %115, i64 %118
  %120 = load i8*, i8** %119, align 8
  %121 = load i8**, i8*** %6, align 8
  %122 = load i32, i32* %4, align 4
  %123 = sext i32 %122 to i64
  %124 = getelementptr inbounds i8*, i8** %121, i64 %123
  store i8* %120, i8** %124, align 8
  %125 = load i8*, i8** %10, align 8
  %126 = load i8**, i8*** %6, align 8
  %127 = load i32, i32* %4, align 4
  %128 = add nsw i32 %127, 1
  %129 = sext i32 %128 to i64
  %130 = getelementptr inbounds i8*, i8** %126, i64 %129
  store i8* %125, i8** %130, align 8
  br label %131

131:                                              ; preds = %109, %94
  br label %132

132:                                              ; preds = %131
  %133 = load i32, i32* %4, align 4
  %134 = add nsw i32 %133, 1
  store i32 %134, i32* %4, align 4
  br label %89

135:                                              ; preds = %89
  br label %136

136:                                              ; preds = %135
  %137 = load i32, i32* %3, align 4
  %138 = add nsw i32 %137, 1
  store i32 %138, i32* %3, align 4
  br label %84

139:                                              ; preds = %84
  store i32 0, i32* %3, align 4
  br label %140

140:                                              ; preds = %192, %139
  %141 = load i32, i32* %3, align 4
  %142 = load i32, i32* %2, align 4
  %143 = icmp slt i32 %141, %142
  br i1 %143, label %144, label %195

144:                                              ; preds = %140
  store i32 0, i32* %4, align 4
  br label %145

145:                                              ; preds = %188, %144
  %146 = load i32, i32* %4, align 4
  %147 = load i32, i32* %2, align 4
  %148 = sub nsw i32 %147, 1
  %149 = icmp slt i32 %146, %148
  br i1 %149, label %150, label %191

150:                                              ; preds = %145
  %151 = load i8**, i8*** %7, align 8
  %152 = load i32, i32* %4, align 4
  %153 = sext i32 %152 to i64
  %154 = getelementptr inbounds i8*, i8** %151, i64 %153
  %155 = load i8*, i8** %154, align 8
  %156 = call i64 @strlen(i8* %155) #5
  %157 = load i8**, i8*** %7, align 8
  %158 = load i32, i32* %4, align 4
  %159 = add nsw i32 %158, 1
  %160 = sext i32 %159 to i64
  %161 = getelementptr inbounds i8*, i8** %157, i64 %160
  %162 = load i8*, i8** %161, align 8
  %163 = call i64 @strlen(i8* %162) #5
  %164 = icmp ugt i64 %156, %163
  br i1 %164, label %165, label %187

165:                                              ; preds = %150
  %166 = load i8**, i8*** %7, align 8
  %167 = load i32, i32* %4, align 4
  %168 = sext i32 %167 to i64
  %169 = getelementptr inbounds i8*, i8** %166, i64 %168
  %170 = load i8*, i8** %169, align 8
  store i8* %170, i8** %10, align 8
  %171 = load i8**, i8*** %7, align 8
  %172 = load i32, i32* %4, align 4
  %173 = add nsw i32 %172, 1
  %174 = sext i32 %173 to i64
  %175 = getelementptr inbounds i8*, i8** %171, i64 %174
  %176 = load i8*, i8** %175, align 8
  %177 = load i8**, i8*** %7, align 8
  %178 = load i32, i32* %4, align 4
  %179 = sext i32 %178 to i64
  %180 = getelementptr inbounds i8*, i8** %177, i64 %179
  store i8* %176, i8** %180, align 8
  %181 = load i8*, i8** %10, align 8
  %182 = load i8**, i8*** %7, align 8
  %183 = load i32, i32* %4, align 4
  %184 = add nsw i32 %183, 1
  %185 = sext i32 %184 to i64
  %186 = getelementptr inbounds i8*, i8** %182, i64 %185
  store i8* %181, i8** %186, align 8
  br label %187

187:                                              ; preds = %165, %150
  br label %188

188:                                              ; preds = %187
  %189 = load i32, i32* %4, align 4
  %190 = add nsw i32 %189, 1
  store i32 %190, i32* %4, align 4
  br label %145

191:                                              ; preds = %145
  br label %192

192:                                              ; preds = %191
  %193 = load i32, i32* %3, align 4
  %194 = add nsw i32 %193, 1
  store i32 %194, i32* %3, align 4
  br label %140

195:                                              ; preds = %140
  %196 = load i8**, i8*** %6, align 8
  %197 = getelementptr inbounds i8*, i8** %196, i64 0
  %198 = load i8*, i8** %197, align 8
  %199 = load i8**, i8*** %7, align 8
  %200 = getelementptr inbounds i8*, i8** %199, i64 0
  %201 = load i8*, i8** %200, align 8
  %202 = call i32 (i8*, ...) @printf(i8* getelementptr inbounds ([6 x i8], [6 x i8]* @.str.1, i64 0, i64 0), i8* %198, i8* %201)
  ret i32 0
}

declare dso_local i32 @__isoc99_scanf(i8*, ...) #1

; Function Attrs: nounwind
declare dso_local noalias i8* @malloc(i64) #2

declare dso_local i32 @getchar() #1

; Function Attrs: nounwind
declare dso_local i8* @strcpy(i8*, i8*) #2

; Function Attrs: nounwind readonly
declare dso_local i64 @strlen(i8*) #3

declare dso_local i32 @printf(i8*, ...) #1


!llvm.module.flags = !{!0}
!llvm.ident = !{!1}

!0 = !{i32 1, !"wchar_size", i32 4}
!1 = !{!"clang version 10.0.0-4ubuntu1 "}
